target datalayout = "e-m:e-p270:32:32-p271:32:32-p272:64:64-i64:64-i128:128-f80:128-n8:16:32:64-S128"
target triple = "x86_64-pc-linux-gnu"

%struct.CVodeMemRec = type { double, ptr, ptr, i32, i32, i32, double, double, ptr, i32, ptr, ptr, i32, ptr, i32, i32, double, double, ptr, i32, i32, i32, ptr, ptr, ptr, i32, i32, ptr, ptr, ptr, i32, double, i32, i32, double, ptr, ptr, i32, ptr, ptr, i32, i32, i32, double, ptr, ptr, [13 x ptr], ptr, ptr, ptr, ptr, ptr, [13 x ptr], ptr, ptr, ptr, ptr, [13 x ptr], ptr, ptr, ptr, ptr, ptr, i32, [13 x ptr], ptr, ptr, ptr, ptr, ptr, i32, double, i32, i32, i32, i32, i32, double, double, double, double, double, double, double, double, [14 x double], [6 x double], [13 x double], double, double, double, double, double, double, double, double, double, double, double, i32, ptr, i32, i64, i32, i32, i32, i32, i32, double, double, double, i64, i64, i64, i64, i64, i64, i64, i64, i64, ptr, i64, i64, ptr, i64, i64, i64, i64, i64, i64, i32, i64, i64, i64, i64, i64, i64, double, double, double, ptr, ptr, ptr, ptr, ptr, i32, i32, i64, double, double, double, i32, double, i32, i32, i32, i32, i32, i32, i32, i32, i32, i32, i32, i32, i32, i32, i32, i32, ptr, ptr, ptr, i32, [6 x [4 x double]], i32, i64, ptr, i32, ptr, ptr, double, double, double, ptr, ptr, ptr, double, double, i32, i32, i64, ptr, i32, i32, ptr, i32 }
%struct.CVadjMemRec = type { double, double, i32, i32, double, ptr, i32, ptr, i32, ptr, i32, ptr, i64, ptr, i64, i32, ptr, ptr, ptr, ptr, i32, i32, i32, i32, [13 x ptr], [13 x ptr], [13 x double], ptr, ptr, i64 }
%struct.CVodeBMemRec = type { i32, double, ptr, i32, i32, ptr, ptr, ptr, ptr, ptr, ptr, ptr, ptr, ptr, double, ptr, ptr }

@.str = private unnamed_addr constant [7 x i8] c"CVODEA\00", align 1
@.str.2 = private unnamed_addr constant [26 x i8] c"cvode_mem = NULL illegal.\00", align 1
@.str.3 = private unnamed_addr constant [55 x i8] c"Illegal attempt to call before calling CVodeAdjMalloc.\00", align 1
@.str.5 = private unnamed_addr constant [25 x i8] c"Illegal value for which.\00", align 1
@.str.14 = private unnamed_addr constant [21 x i8] c"CVodeGetAdjCVodeBmem\00", align 1

; Function Attrs: nounwind uwtable
define ptr @CVodeGetAdjCVodeBmem(ptr noundef %0, i32 noundef %1) #0 {
  %3 = alloca ptr, align 8
  %4 = alloca ptr, align 8
  %5 = alloca i32, align 4
  %6 = alloca ptr, align 8
  %7 = alloca ptr, align 8
  %8 = alloca ptr, align 8
  %9 = alloca ptr, align 8
  %10 = alloca i32, align 4
  store ptr %0, ptr %4, align 8, !tbaa !3
  store i32 %1, ptr %5, align 4, !tbaa !28
  call void @llvm.lifetime.start.p0(i64 8, ptr %6) #3
  call void @llvm.lifetime.start.p0(i64 8, ptr %7) #3
  call void @llvm.lifetime.start.p0(i64 8, ptr %8) #3
  call void @llvm.lifetime.start.p0(i64 8, ptr %9) #3
  %11 = load ptr, ptr %4, align 8, !tbaa !3
  %12 = icmp eq ptr %11, null
  br i1 %12, label %13, label %14

13:                                               ; preds = %2
  call void (ptr, i32, ptr, ptr, ptr, ...) @cvProcessError(ptr noundef null, i32 noundef 0, ptr noundef @.str, ptr noundef @.str.14, ptr noundef @.str.2)
  store ptr null, ptr %3, align 8
  store i32 1, ptr %10, align 4
  br label %56

14:                                               ; preds = %2
  %15 = load ptr, ptr %4, align 8, !tbaa !3
  store ptr %15, ptr %6, align 8, !tbaa !7
  %16 = load ptr, ptr %6, align 8, !tbaa !7
  %17 = getelementptr inbounds nuw %struct.CVodeMemRec, ptr %16, i32 0, i32 195
  %18 = load i32, ptr %17, align 8, !tbaa !9
  %19 = icmp eq i32 %18, 0
  br i1 %19, label %20, label %22

20:                                               ; preds = %14
  %21 = load ptr, ptr %6, align 8, !tbaa !7
  call void (ptr, i32, ptr, ptr, ptr, ...) @cvProcessError(ptr noundef %21, i32 noundef 0, ptr noundef @.str, ptr noundef @.str.14, ptr noundef @.str.3)
  store ptr null, ptr %3, align 8
  store i32 1, ptr %10, align 4
  br label %56

22:                                               ; preds = %14
  %23 = load ptr, ptr %6, align 8, !tbaa !7
  %24 = getelementptr inbounds nuw %struct.CVodeMemRec, ptr %23, i32 0, i32 194
  %25 = load ptr, ptr %24, align 8, !tbaa !21
  store ptr %25, ptr %7, align 8, !tbaa !22
  %26 = load i32, ptr %5, align 4, !tbaa !28
  %27 = load ptr, ptr %7, align 8, !tbaa !22
  %28 = getelementptr inbounds nuw %struct.CVadjMemRec, ptr %27, i32 0, i32 6
  %29 = load i32, ptr %28, align 8, !tbaa !29
  %30 = icmp sge i32 %26, %29
  br i1 %30, label %31, label %33

31:                                               ; preds = %22
  %32 = load ptr, ptr %6, align 8, !tbaa !7
  call void (ptr, i32, ptr, ptr, ptr, ...) @cvProcessError(ptr noundef %32, i32 noundef 0, ptr noundef @.str, ptr noundef @.str.14, ptr noundef @.str.5)
  store ptr null, ptr %3, align 8
  store i32 1, ptr %10, align 4
  br label %56

33:                                               ; preds = %22
  %34 = load ptr, ptr %7, align 8, !tbaa !22
  %35 = getelementptr inbounds nuw %struct.CVadjMemRec, ptr %34, i32 0, i32 5
  %36 = load ptr, ptr %35, align 8, !tbaa !30
  store ptr %36, ptr %8, align 8, !tbaa !31
  br label %37

37:                                               ; preds = %47, %33
  %38 = load ptr, ptr %8, align 8, !tbaa !31
  %39 = icmp ne ptr %38, null
  br i1 %39, label %40, label %51

40:                                               ; preds = %37
  %41 = load i32, ptr %5, align 4, !tbaa !28
  %42 = load ptr, ptr %8, align 8, !tbaa !31
  %43 = getelementptr inbounds nuw %struct.CVodeBMemRec, ptr %42, i32 0, i32 0
  %44 = load i32, ptr %43, align 8, !tbaa !32
  %45 = icmp eq i32 %41, %44
  br i1 %45, label %46, label %47

46:                                               ; preds = %40
  br label %51

47:                                               ; preds = %40
  %48 = load ptr, ptr %8, align 8, !tbaa !31
  %49 = getelementptr inbounds nuw %struct.CVodeBMemRec, ptr %48, i32 0, i32 16
  %50 = load ptr, ptr %49, align 8, !tbaa !34
  store ptr %50, ptr %8, align 8, !tbaa !31
  br label %37, !llvm.loop !49

51:                                               ; preds = %46, %37
  %52 = load ptr, ptr %8, align 8, !tbaa !31
  %53 = getelementptr inbounds nuw %struct.CVodeBMemRec, ptr %52, i32 0, i32 2
  %54 = load ptr, ptr %53, align 8, !tbaa !37
  store ptr %54, ptr %9, align 8, !tbaa !3
  %55 = load ptr, ptr %9, align 8, !tbaa !3
  store ptr %55, ptr %3, align 8
  store i32 1, ptr %10, align 4
  br label %56

56:                                               ; preds = %51, %31, %20, %13
  call void @llvm.lifetime.end.p0(i64 8, ptr %9) #3
  call void @llvm.lifetime.end.p0(i64 8, ptr %8) #3
  call void @llvm.lifetime.end.p0(i64 8, ptr %7) #3
  call void @llvm.lifetime.end.p0(i64 8, ptr %6) #3
  %57 = load ptr, ptr %3, align 8
  ret ptr %57
}