; Function Attrs: nounwind uwtable
define ptr @CVodeGetAdjCVodeBmem(ptr noundef %0, i32 noundef %1) local_unnamed_addr #0 {
  %3 = icmp eq ptr %0, null
  br i1 %3, label %4, label %5

4:                                                ; preds = %2
  tail call void (ptr, i32, ptr, ptr, ptr, ...) @cvProcessError(ptr noundef null, i32 noundef 0, ptr noundef nonnull @.str, ptr noundef nonnull @.str.14, ptr noundef nonnull @.str.2) #2
  br label %23

5:                                                ; preds = %2
  %6 = getelementptr inbounds nuw i8, ptr %0, i64 2200
  %7 = load i32, ptr %6, align 8, !tbaa !3
  %8 = icmp eq i32 %7, 0
  br i1 %8, label %9, label %10

9:                                                ; preds = %5
  tail call void (ptr, i32, ptr, ptr, ptr, ...) @cvProcessError(ptr noundef nonnull %0, i32 noundef 0, ptr noundef nonnull @.str, ptr noundef nonnull @.str.14, ptr noundef nonnull @.str.3) #2
  br label %23

10:                                               ; preds = %5
  %11 = getelementptr inbounds nuw i8, ptr %0, i64 2192
  %12 = load ptr, ptr %11, align 8, !tbaa !18
  %13 = getelementptr inbounds nuw i8, ptr %12, i64 40
  %14 = load i32, ptr %13, align 8, !tbaa !24
  %.not = icmp slt i32 %1, %14
  br i1 %.not, label %16, label %15

15:                                               ; preds = %10
  tail call void (ptr, i32, ptr, ptr, ptr, ...) @cvProcessError(ptr noundef nonnull %0, i32 noundef 0, ptr noundef nonnull @.str, ptr noundef nonnull @.str.14, ptr noundef nonnull @.str.5) #2
  br label %23

16:                                               ; preds = %10
  %17 = getelementptr inbounds nuw i8, ptr %12, i64 32
  br label %.lr.ph

.lr.ph:                                           ; preds = %.lr.ph, %16
  %.015.sink.in = phi ptr [ %20, %.lr.ph ], [ %17, %16 ]
  %.015.sink = load ptr, ptr %.015.sink.in, align 8, !tbaa !25, !nonnull !26, !noundef !26
  %18 = load i32, ptr %.015.sink, align 8, !tbaa !27
  %19 = icmp eq i32 %1, %18
  %20 = getelementptr inbounds nuw i8, ptr %.015.sink, i64 120
  br i1 %19, label %._crit_edge, label %.lr.ph

._crit_edge:                                      ; preds = %.lr.ph
  %21 = getelementptr inbounds nuw i8, ptr %.015.sink, i64 16
  %22 = load ptr, ptr %21, align 8, !tbaa !30
  br label %23

23:                                               ; preds = %._crit_edge, %15, %9, %4
  %.0 = phi ptr [ null, %4 ], [ null, %9 ], [ null, %15 ], [ %22, %._crit_edge ]
  ret ptr %.0
}